; Function Attrs: mustprogress uwtable
define noundef zeroext i1 @_ZN3re23RE215FindAndConsumeNEPN4absl7debian211string_viewERKS0_PKPKNS0_3ArgEi(ptr noundef captures(none) %input, ptr noundef nonnull align 8 dereferenceable(148) %re, ptr noundef %args, i32 noundef %n) local_unnamed_addr #2 align 2 {
entry:
  %consumed = alloca i64, align 8
  %agg.tmp.sroa.0.0.copyload = load ptr, ptr %input, align 8
  %agg.tmp.sroa.2.0..sroa_idx = getelementptr inbounds nuw i8, ptr %input, i64 8
  %agg.tmp.sroa.2.0.copyload = load i64, ptr %agg.tmp.sroa.2.0..sroa_idx, align 8
  %call = call noundef zeroext i1 @_ZNK3re23RE27DoMatchEN4absl7debian211string_viewENS0_6AnchorEPmPKPKNS0_3ArgEi(ptr noundef nonnull align 8 dereferenceable(148) %re, ptr %agg.tmp.sroa.0.0.copyload, i64 %agg.tmp.sroa.2.0.copyload, i32 noundef 0, ptr noundef nonnull %consumed, ptr noundef %args, i32 noundef %n)
  br i1 %call, label %if.then, label %return

if.then:                                          ; preds = %entry
  %0 = load i64, ptr %consumed, align 8
  %1 = load i64, ptr %agg.tmp.sroa.2.0..sroa_idx, align 8
  %cmp.not.i = icmp ugt i64 %0, %1
  br i1 %cmp.not.i, label %cond.false.i, label %_ZN4absl7debian211string_view13remove_prefixEm.exit

cond.false.i:                                     ; preds = %if.then
  call void @llvm.trap()
  unreachable

_ZN4absl7debian211string_view13remove_prefixEm.exit: ; preds = %if.then
  %2 = load ptr, ptr %input, align 8
  %add.ptr.i = getelementptr inbounds i8, ptr %2, i64 %0
  store ptr %add.ptr.i, ptr %input, align 8
  %sub.i = sub nuw i64 %1, %0
  store i64 %sub.i, ptr %agg.tmp.sroa.2.0..sroa_idx, align 8
  br label %return

return:                                           ; preds = %entry, %_ZN4absl7debian211string_view13remove_prefixEm.exit
  ret i1 %call
}